; ModuleID = 'source-C-CXX/6/836.c'
source_filename = "source-C-CXX/6/836.c"
target datalayout = "e-m:e-p270:32:32-p271:32:32-p272:64:64-i64:64-f80:128-n8:16:32:64-S128"
target triple = "x86_64-pc-linux-gnu"

@.str = private unnamed_addr constant [7 x i8] c"%s%s%s\00", align 1
@.str.1 = private unnamed_addr constant [3 x i8] c"%s\00", align 1

; Function Attrs: nofree nounwind sspstrong uwtable
define dso_local i32 @main() local_unnamed_addr #0 {
  %1 = alloca [300 x i8], align 16
  %2 = alloca [300 x i8], align 16
  %3 = alloca [300 x i8], align 16
  %4 = getelementptr inbounds [300 x i8], [300 x i8]* %3, i64 0, i64 0
  %5 = getelementptr inbounds [300 x i8], [300 x i8]* %1, i64 0, i64 0
  call void @llvm.lifetime.start.p0i8(i64 300, i8* nonnull %5) #6
  %6 = getelementptr inbounds [300 x i8], [300 x i8]* %2, i64 0, i64 0
  call void @llvm.lifetime.start.p0i8(i64 300, i8* nonnull %6) #6
  %7 = getelementptr inbounds [300 x i8], [300 x i8]* %3, i64 0, i64 0
  call void @llvm.lifetime.start.p0i8(i64 300, i8* nonnull %7) #6
  %8 = call i32 (i8*, ...) @__isoc99_scanf(i8* getelementptr inbounds ([7 x i8], [7 x i8]* @.str, i64 0, i64 0), i8* nonnull %5, i8* nonnull %6, i8* nonnull %7)
  %9 = call i64 @strlen(i8* noundef nonnull %5) #7
  %10 = trunc i64 %9 to i32
  %11 = call i64 @strlen(i8* noundef nonnull %7) #7
  %12 = trunc i64 %11 to i32
  %13 = load i8, i8* %6, align 16
  %14 = getelementptr inbounds [300 x i8], [300 x i8]* %2, i64 0, i64 1
  %15 = load i8, i8* %14, align 1
  %16 = getelementptr inbounds [300 x i8], [300 x i8]* %2, i64 0, i64 2
  %17 = load i8, i8* %16, align 2
  %18 = getelementptr inbounds [300 x i8], [300 x i8]* %2, i64 0, i64 3
  %19 = load i8, i8* %18, align 1
  %20 = icmp sgt i32 %10, 0
  br i1 %20, label %21, label %57

21:                                               ; preds = %0
  %22 = and i64 %9, 4294967295
  br label %23

23:                                               ; preds = %21, %55
  %24 = phi i64 [ 0, %21 ], [ %28, %55 ]
  %25 = getelementptr [300 x i8], [300 x i8]* %1, i64 0, i64 %24
  %26 = load i8, i8* %25, align 1, !tbaa !5
  %27 = icmp eq i8 %26, %13
  %28 = add nuw nsw i64 %24, 1
  br i1 %27, label %29, label %55

29:                                               ; preds = %23
  %30 = getelementptr inbounds [300 x i8], [300 x i8]* %1, i64 0, i64 %28
  %31 = load i8, i8* %30, align 1, !tbaa !5
  %32 = icmp eq i8 %31, %15
  br i1 %32, label %33, label %55

33:                                               ; preds = %29
  %34 = add nuw nsw i64 %24, 2
  %35 = getelementptr inbounds [300 x i8], [300 x i8]* %1, i64 0, i64 %34
  %36 = load i8, i8* %35, align 1, !tbaa !5
  %37 = icmp eq i8 %36, %17
  br i1 %37, label %38, label %55

38:                                               ; preds = %33
  %39 = add nuw nsw i64 %24, 3
  %40 = getelementptr inbounds [300 x i8], [300 x i8]* %1, i64 0, i64 %39
  %41 = load i8, i8* %40, align 1, !tbaa !5
  %42 = icmp eq i8 %41, %19
  br i1 %42, label %43, label %55

43:                                               ; preds = %38
  %44 = trunc i64 %24 to i32
  %45 = icmp sgt i32 %12, 0
  br i1 %45, label %46, label %57

46:                                               ; preds = %43
  %47 = getelementptr [300 x i8], [300 x i8]* %1, i64 0, i64 %24
  %48 = add i32 %12, %44
  %49 = add nuw nsw i32 %44, 1
  %50 = call i32 @llvm.smax.i32(i32 %48, i32 %49)
  %51 = xor i32 %44, -1
  %52 = add i32 %50, %51
  %53 = zext i32 %52 to i64
  %54 = add nuw nsw i64 %53, 1
  call void @llvm.memcpy.p0i8.p0i8.i64(i8* noundef nonnull align 1 %47, i8* noundef nonnull align 16 %4, i64 %54, i1 false)
  br label %57

55:                                               ; preds = %23, %29, %33, %38
  %56 = icmp eq i64 %28, %22
  br i1 %56, label %57, label %23, !llvm.loop !8

57:                                               ; preds = %55, %46, %0, %43
  %58 = call i32 (i8*, ...) @printf(i8* nonnull dereferenceable(1) getelementptr inbounds ([3 x i8], [3 x i8]* @.str.1, i64 0, i64 0), i8* nonnull %5)
  call void @llvm.lifetime.end.p0i8(i64 300, i8* nonnull %7) #6
  call void @llvm.lifetime.end.p0i8(i64 300, i8* nonnull %6) #6
  call void @llvm.lifetime.end.p0i8(i64 300, i8* nonnull %5) #6
  ret i32 0
}

; Function Attrs: argmemonly mustprogress nofree nosync nounwind willreturn
declare void @llvm.lifetime.start.p0i8(i64 immarg, i8* nocapture) #1

; Function Attrs: nofree nounwind
declare noundef i32 @__isoc99_scanf(i8* nocapture noundef readonly, ...) local_unnamed_addr #2

; Function Attrs: argmemonly mustprogress nofree nounwind readonly willreturn
declare i64 @strlen(i8* nocapture) local_unnamed_addr #3

; Function Attrs: nofree nounwind
declare noundef i32 @printf(i8* nocapture noundef readonly, ...) local_unnamed_addr #2

; Function Attrs: argmemonly mustprogress nofree nosync nounwind willreturn
declare void @llvm.lifetime.end.p0i8(i64 immarg, i8* nocapture) #1

; Function Attrs: nofree nosync nounwind readnone speculatable willreturn
declare i32 @llvm.smax.i32(i32, i32) #4

; Function Attrs: argmemonly nofree nounwind willreturn
declare void @llvm.memcpy.p0i8.p0i8.i64(i8* noalias nocapture writeonly, i8* noalias nocapture readonly, i64, i1 immarg) #5


!llvm.module.flags = !{!0, !1, !2, !3}
!llvm.ident = !{!4}

!0 = !{i32 1, !"wchar_size", i32 4}
!1 = !{i32 7, !"PIC Level", i32 2}
!2 = !{i32 7, !"PIE Level", i32 2}
!3 = !{i32 7, !"uwtable", i32 1}
!4 = !{!"clang version 13.0.0"}
!5 = !{!6, !6, i64 0}
!6 = !{!"omnipotent char", !7, i64 0}
!7 = !{!"Simple C/C++ TBAA"}
!8 = distinct !{!8, !9}
!9 = !{!"llvm.loop.mustprogress"}
